; Function Attrs: nounwind uwtable
define ptr @createConstrained0LiveCone(ptr noundef %0, ptr noundef readonly captures(none) %1) local_unnamed_addr #0 {
  %3 = getelementptr i8, ptr %1, i64 4
  %.val = load i32, ptr %3, align 4
  %4 = add nsw i32 %.val, -1
  %5 = getelementptr i8, ptr %0, i64 48
  %.val19 = load ptr, ptr %5, align 8
  %6 = getelementptr i8, ptr %1, i64 8
  %.val20 = load ptr, ptr %6, align 8
  %7 = sext i32 %4 to i64
  %8 = getelementptr inbounds ptr, ptr %.val20, i64 %7
  %9 = load ptr, ptr %8, align 8
  %10 = ptrtoint ptr %9 to i64
  %11 = and i64 %10, -2
  %12 = inttoptr i64 %11 to ptr
  %13 = getelementptr inbounds nuw i8, ptr %12, i64 40
  %14 = load ptr, ptr %13, align 8
  %15 = icmp sgt i32 %.val, 1
  br i1 %15, label %.lr.ph.preheader, label %._crit_edge

.lr.ph.preheader:                                 ; preds = %2
  %wide.trip.count = zext nneg i32 %4 to i64
  br label %.lr.ph

.lr.ph:                                           ; preds = %.lr.ph.preheader, %.lr.ph
  %indvars.iv = phi i64 [ 0, %.lr.ph.preheader ], [ %indvars.iv.next, %.lr.ph ]
  %.023 = phi ptr [ %.val19, %.lr.ph.preheader ], [ %27, %.lr.ph ]
  %.val21 = load ptr, ptr %6, align 8
  %16 = getelementptr inbounds nuw ptr, ptr %.val21, i64 %indvars.iv
  %17 = load ptr, ptr %16, align 8
  %18 = ptrtoint ptr %17 to i64
  %19 = and i64 %18, -2
  %20 = inttoptr i64 %19 to ptr
  %21 = getelementptr inbounds nuw i8, ptr %20, i64 40
  %22 = load ptr, ptr %21, align 8
  %23 = and i64 %18, 1
  %24 = ptrtoint ptr %22 to i64
  %25 = xor i64 %23, %24
  %26 = inttoptr i64 %25 to ptr
  %27 = tail call ptr @Aig_And(ptr noundef %0, ptr noundef %.023, ptr noundef %26) #9
  %indvars.iv.next = add nuw nsw i64 %indvars.iv, 1
  %exitcond.not = icmp eq i64 %indvars.iv.next, %wide.trip.count
  br i1 %exitcond.not, label %._crit_edge, label %.lr.ph, !llvm.loop !4

._crit_edge:                                      ; preds = %.lr.ph, %2
  %.0.lcssa = phi ptr [ %.val19, %2 ], [ %27, %.lr.ph ]
  %28 = and i64 %10, 1
  %29 = ptrtoint ptr %14 to i64
  %30 = xor i64 %28, %29
  %31 = inttoptr i64 %30 to ptr
  %32 = ptrtoint ptr %.0.lcssa to i64
  %33 = xor i64 %32, 1
  %34 = inttoptr i64 %33 to ptr
  %35 = tail call ptr @Aig_Or(ptr noundef %0, ptr noundef %34, ptr noundef %31) #9
  ret ptr %35
}